; Function Attrs: nounwind uwtable
define range(i32 -1, 1) i32 @H5Pset_fletcher32(i64 noundef %0) local_unnamed_addr #0 {
  %2 = alloca %struct.H5O_pline_t, align 8
  %3 = alloca %struct.H5CX_node_t, align 8
  call void @llvm.lifetime.start.p0(i64 72, ptr nonnull %2) #10
  call void @llvm.lifetime.start.p0(i64 480, ptr nonnull %3) #10
  call void @llvm.memset.p0.i64(ptr noundef nonnull align 8 dereferenceable(480) %3, i8 0, i64 480, i1 false)
  %4 = load i8, ptr @H5_libinit_g, align 1, !tbaa !3, !range !7, !noundef !8
  %5 = trunc nuw i8 %4 to i1
  %6 = load i8, ptr @H5_libterm_g, align 1, !range !7
  %7 = trunc nuw i8 %6 to i1
  %8 = select i1 %5, i1 true, i1 %7
  br i1 %8, label %16, label %9, !prof !9

9:                                                ; preds = %1
  %10 = tail call i32 @H5_init_library() #10
  %11 = icmp slt i32 %10, 0
  br i1 %11, label %12, label %._crit_edge, !prof !14

._crit_edge:                                      ; preds = %9
  %.pre = load i8, ptr @H5_libterm_g, align 1, !range !7
  br label %16

12:                                               ; preds = %9
  %13 = load i64, ptr @H5E_FUNC_g, align 8, !tbaa !10
  %14 = load i64, ptr @H5E_CANTINIT_g, align 8, !tbaa !10
  %15 = tail call i32 (ptr, ptr, i32, i64, i64, ptr, ...) @H5E_printf_stack(ptr noundef nonnull @.str.1, ptr noundef nonnull @__func__.H5Pset_fletcher32, i32 noundef 1093, i64 noundef %13, i64 noundef %14, ptr noundef nonnull @.str.2) #10
  br label %.thread23

16:                                               ; preds = %._crit_edge, %1
  %17 = phi i8 [ %.pre, %._crit_edge ], [ %6, %1 ]
  %18 = load i8, ptr @H5P_init_g, align 1, !tbaa !3, !range !7, !noundef !8
  %19 = trunc nuw i8 %18 to i1
  %20 = trunc nuw i8 %17 to i1
  %21 = select i1 %19, i1 true, i1 %20
  br i1 %21, label %29, label %22, !prof !9

22:                                               ; preds = %16
  store i8 1, ptr @H5P_init_g, align 1, !tbaa !3
  %23 = tail call i32 @H5P__init_package() #10
  %24 = icmp slt i32 %23, 0
  br i1 %24, label %25, label %29, !prof !15

25:                                               ; preds = %22
  store i8 0, ptr @H5P_init_g, align 1, !tbaa !3
  %26 = load i64, ptr @H5E_FUNC_g, align 8, !tbaa !10
  %27 = load i64, ptr @H5E_CANTINIT_g, align 8, !tbaa !10
  %28 = tail call i32 (ptr, ptr, i32, i64, i64, ptr, ...) @H5E_printf_stack(ptr noundef nonnull @.str.1, ptr noundef nonnull @__func__.H5Pset_fletcher32, i32 noundef 1093, i64 noundef %26, i64 noundef %27, ptr noundef nonnull @.str.3) #10
  br label %.thread23

29:                                               ; preds = %16, %22
  %30 = call i32 @H5CX_push(ptr noundef nonnull %3) #10
  %31 = icmp slt i32 %30, 0
  br i1 %31, label %32, label %36, !prof !14

32:                                               ; preds = %29
  %33 = load i64, ptr @H5E_FUNC_g, align 8, !tbaa !10
  %34 = load i64, ptr @H5E_CANTSET_g, align 8, !tbaa !10
  %35 = call i32 (ptr, ptr, i32, i64, i64, ptr, ...) @H5E_printf_stack(ptr noundef nonnull @.str.1, ptr noundef nonnull @__func__.H5Pset_fletcher32, i32 noundef 1093, i64 noundef %33, i64 noundef %34, ptr noundef nonnull @.str.4) #10
  br label %.thread23

36:                                               ; preds = %29
  %37 = call i32 @H5E_clear_stack() #10
  %38 = load i64, ptr @H5P_CLS_OBJECT_CREATE_ID_g, align 8, !tbaa !10
  %39 = call ptr @H5P_object_verify(i64 noundef %0, i64 noundef %38, i1 noundef zeroext false) #10
  %40 = icmp eq ptr %39, null
  br i1 %40, label %41, label %45, !prof !16

41:                                               ; preds = %36
  %42 = load i64, ptr @H5E_ID_g, align 8, !tbaa !10
  %43 = load i64, ptr @H5E_BADID_g, align 8, !tbaa !10
  %44 = call i32 (ptr, ptr, i32, i64, i64, ptr, ...) @H5E_printf_stack(ptr noundef nonnull @.str.1, ptr noundef nonnull @__func__.H5Pset_fletcher32, i32 noundef 1097, i64 noundef %42, i64 noundef %43, ptr noundef nonnull @.str.8) #10
  br label %.thread29

45:                                               ; preds = %36
  %46 = call i32 @H5P_peek(ptr noundef nonnull %39, ptr noundef nonnull @.str.19, ptr noundef nonnull %2) #10
  %47 = icmp slt i32 %46, 0
  br i1 %47, label %48, label %52, !prof !16

48:                                               ; preds = %45
  %49 = load i64, ptr @H5E_PLIST_g, align 8, !tbaa !10
  %50 = load i64, ptr @H5E_CANTGET_g, align 8, !tbaa !10
  %51 = call i32 (ptr, ptr, i32, i64, i64, ptr, ...) @H5E_printf_stack(ptr noundef nonnull @.str.1, ptr noundef nonnull @__func__.H5Pset_fletcher32, i32 noundef 1101, i64 noundef %49, i64 noundef %50, ptr noundef nonnull @.str.20) #10
  br label %.thread29

52:                                               ; preds = %45
  %53 = call i32 @H5Z_append(ptr noundef nonnull %2, i32 noundef 3, i32 noundef 0, i64 noundef 0, ptr noundef null) #10
  %54 = icmp slt i32 %53, 0
  br i1 %54, label %55, label %59, !prof !16

55:                                               ; preds = %52
  %56 = load i64, ptr @H5E_PLINE_g, align 8, !tbaa !10
  %57 = load i64, ptr @H5E_CANTINIT_g, align 8, !tbaa !10
  %58 = call i32 (ptr, ptr, i32, i64, i64, ptr, ...) @H5E_printf_stack(ptr noundef nonnull @.str.1, ptr noundef nonnull @__func__.H5Pset_fletcher32, i32 noundef 1105, i64 noundef %56, i64 noundef %57, ptr noundef nonnull @.str.39) #10
  br label %.thread29

59:                                               ; preds = %52
  %60 = call i32 @H5P_poke(ptr noundef nonnull %39, ptr noundef nonnull @.str.19, ptr noundef nonnull %2) #10
  %61 = icmp slt i32 %60, 0
  br i1 %61, label %62, label %67, !prof !16

62:                                               ; preds = %59
  %63 = load i64, ptr @H5E_PLIST_g, align 8, !tbaa !10
  %64 = load i64, ptr @H5E_CANTSET_g, align 8, !tbaa !10
  %65 = call i32 (ptr, ptr, i32, i64, i64, ptr, ...) @H5E_printf_stack(ptr noundef nonnull @.str.1, ptr noundef nonnull @__func__.H5Pset_fletcher32, i32 noundef 1109, i64 noundef %63, i64 noundef %64, ptr noundef nonnull @.str.22) #10
  br label %.thread29

.thread29:                                        ; preds = %62, %55, %48, %41
  %66 = call i32 @H5CX_pop(i1 noundef zeroext true) #10
  br label %.thread23

67:                                               ; preds = %59
  %68 = call i32 @H5CX_pop(i1 noundef zeroext true) #10
  br label %70

.thread23:                                        ; preds = %32, %25, %12, %.thread29
  %69 = call i32 @H5E_dump_api_stack() #10
  br label %70

70:                                               ; preds = %67, %.thread23
  %.0131826 = phi i32 [ -1, %.thread23 ], [ 0, %67 ]
  call void @llvm.lifetime.end.p0(i64 480, ptr nonnull %3) #10
  call void @llvm.lifetime.end.p0(i64 72, ptr nonnull %2) #10
  ret i32 %.0131826
}